target datalayout = "e-m:e-p270:32:32-p271:32:32-p272:64:64-i64:64-i128:128-f80:128-n8:16:32:64-S128"
target triple = "x86_64-pc-linux-gnu"

%struct.btIndexedMesh = type <{ i32, [4 x i8], ptr, i32, i32, ptr, i32, i32, i32, [4 x i8] }>
%class.btStridingMeshInterface = type { ptr, %class.btVector3 }
%class.btAlignedObjectArray = type <{ [4 x i8], i32, i32, [4 x i8], ptr, i8, [7 x i8] }>
%class.btVector3 = type { [4 x float] }
%class.btTriangleIndexVertexArray = type <{ %class.btStridingMeshInterface, %class.btAlignedObjectArray, [2 x i32], i32, %class.btVector3, %class.btVector3, [4 x i8] }>

; Function Attrs: inlinehint mustprogress nounwind uwtable
define linkonce_odr dso_local noundef nonnull align 8 dereferenceable(44) ptr @_ZN20btAlignedObjectArrayI13btIndexedMeshEixEi(ptr noundef nonnull align 8 dereferenceable(25) %0, i32 noundef %1) #5 comdat align 2 {
  %3 = alloca ptr, align 8
  %4 = alloca i32, align 4
  store ptr %0, ptr %3, align 8, !tbaa !66
  store i32 %1, ptr %4, align 4, !tbaa !9
  %5 = load ptr, ptr %3, align 8
  %6 = getelementptr inbounds nuw %class.btAlignedObjectArray, ptr %5, i32 0, i32 4
  %7 = load ptr, ptr %6, align 8, !tbaa !68
  %8 = load i32, ptr %4, align 4, !tbaa !9
  %9 = sext i32 %8 to i64
  %10 = getelementptr inbounds %struct.btIndexedMesh, ptr %7, i64 %9
  ret ptr %10
}

; Function Attrs: mustprogress uwtable
define dso_local void @_ZN14btTriangleMesh11addTriangleERK9btVector3S2_S2_b(ptr noundef nonnull align 8 dereferenceable(240) %0, ptr noundef nonnull align 4 dereferenceable(16) %1, ptr noundef nonnull align 4 dereferenceable(16) %2, ptr noundef nonnull align 4 dereferenceable(16) %3, i1 noundef zeroext %4) #2 align 2 {
  %6 = alloca ptr, align 8
  %7 = alloca ptr, align 8
  %8 = alloca ptr, align 8
  %9 = alloca ptr, align 8
  %10 = alloca i8, align 1
  store ptr %0, ptr %6, align 8, !tbaa !12
  store ptr %1, ptr %7, align 8, !tbaa !83
  store ptr %2, ptr %8, align 8, !tbaa !83
  store ptr %3, ptr %9, align 8, !tbaa !83
  %11 = zext i1 %4 to i8
  store i8 %11, ptr %10, align 1, !tbaa !14
  %12 = load ptr, ptr %6, align 8
  %13 = getelementptr inbounds nuw %class.btTriangleIndexVertexArray, ptr %12, i32 0, i32 1
  %14 = call noundef nonnull align 8 dereferenceable(44) ptr @_ZN20btAlignedObjectArrayI13btIndexedMeshEixEi(ptr noundef nonnull align 8 dereferenceable(25) %13, i32 noundef 0)
  %15 = getelementptr inbounds nuw %struct.btIndexedMesh, ptr %14, i32 0, i32 0
  %16 = load i32, ptr %15, align 8, !tbaa !43
  %17 = add nsw i32 %16, 1
  store i32 %17, ptr %15, align 8, !tbaa !43
  %18 = load ptr, ptr %7, align 8, !tbaa !83
  %19 = load i8, ptr %10, align 1, !tbaa !14, !range !18, !noundef !19
  %20 = trunc i8 %19 to i1
  %21 = call noundef i32 @_ZN14btTriangleMesh15findOrAddVertexERK9btVector3b(ptr noundef nonnull align 8 dereferenceable(240) %12, ptr noundef nonnull align 4 dereferenceable(16) %18, i1 noundef zeroext %20)
  call void @_ZN14btTriangleMesh8addIndexEi(ptr noundef nonnull align 8 dereferenceable(240) %12, i32 noundef %21)
  %22 = load ptr, ptr %8, align 8, !tbaa !83
  %23 = load i8, ptr %10, align 1, !tbaa !14, !range !18, !noundef !19
  %24 = trunc i8 %23 to i1
  %25 = call noundef i32 @_ZN14btTriangleMesh15findOrAddVertexERK9btVector3b(ptr noundef nonnull align 8 dereferenceable(240) %12, ptr noundef nonnull align 4 dereferenceable(16) %22, i1 noundef zeroext %24)
  call void @_ZN14btTriangleMesh8addIndexEi(ptr noundef nonnull align 8 dereferenceable(240) %12, i32 noundef %25)
  %26 = load ptr, ptr %9, align 8, !tbaa !83
  %27 = load i8, ptr %10, align 1, !tbaa !14, !range !18, !noundef !19
  %28 = trunc i8 %27 to i1
  %29 = call noundef i32 @_ZN14btTriangleMesh15findOrAddVertexERK9btVector3b(ptr noundef nonnull align 8 dereferenceable(240) %12, ptr noundef nonnull align 4 dereferenceable(16) %26, i1 noundef zeroext %28)
  call void @_ZN14btTriangleMesh8addIndexEi(ptr noundef nonnull align 8 dereferenceable(240) %12, i32 noundef %29)
  ret void
}