; Function Attrs: mustprogress uwtable
define dso_local void @_ZN14btTriangleMesh11addTriangleERK9btVector3S2_S2_b(ptr noundef nonnull align 8 captures(none) dereferenceable(240) %0, ptr noundef nonnull readonly align 4 captures(none) dereferenceable(16) %1, ptr noundef nonnull readonly align 4 captures(none) dereferenceable(16) %2, ptr noundef nonnull readonly align 4 captures(none) dereferenceable(16) %3, i1 noundef zeroext %4) local_unnamed_addr #0 align 2 {
  %6 = getelementptr inbounds nuw i8, ptr %0, i64 40
  %7 = load ptr, ptr %6, align 8, !tbaa !15
  %8 = load i32, ptr %7, align 8, !tbaa !66
  %9 = add nsw i32 %8, 1
  store i32 %9, ptr %7, align 8, !tbaa !66
  %10 = tail call noundef i32 @_ZN14btTriangleMesh15findOrAddVertexERK9btVector3b(ptr noundef nonnull align 8 dereferenceable(240) %0, ptr noundef nonnull align 4 dereferenceable(16) %1, i1 noundef zeroext %4)
  tail call void @_ZN14btTriangleMesh8addIndexEi(ptr noundef nonnull align 8 dereferenceable(240) %0, i32 noundef %10)
  %11 = tail call noundef i32 @_ZN14btTriangleMesh15findOrAddVertexERK9btVector3b(ptr noundef nonnull align 8 dereferenceable(240) %0, ptr noundef nonnull align 4 dereferenceable(16) %2, i1 noundef zeroext %4)
  tail call void @_ZN14btTriangleMesh8addIndexEi(ptr noundef nonnull align 8 dereferenceable(240) %0, i32 noundef %11)
  %12 = tail call noundef i32 @_ZN14btTriangleMesh15findOrAddVertexERK9btVector3b(ptr noundef nonnull align 8 dereferenceable(240) %0, ptr noundef nonnull align 4 dereferenceable(16) %3, i1 noundef zeroext %4)
  tail call void @_ZN14btTriangleMesh8addIndexEi(ptr noundef nonnull align 8 dereferenceable(240) %0, i32 noundef %12)
  ret void
}